(dp0
Vengine
p1
S'pdflatex'
p2
sVpackages
p3
c__builtin__
set
p4
((lp5
tp6
Rp7
sVfiles_with_guttermarks
p8
g4
((lp9
S'Ajtai.tex'
p10
aV/Users/Em/thesisFiles/pjTemps/thesis/./Ajtai.tex
p11
aV/Users/Em/thesisFiles/pjTemps/thesis/./thesis.tex
p12
atp13
Rp14
sVsynctex
p15
I01
s.