(dp0
Vengine
p1
S'pdflatex'
p2
sVpackages
p3
c__builtin__
set
p4
((lp5
Vamsmath
p6
aVamsthm
p7
aVtodonotes
p8
aVamssymb
p9
atp10
Rp11
sVfiles_with_guttermarks
p12
g4
((lp13
V/Users/Em/thesisGit/pjTemps/thesis/./fhe.tex
p14
aS'fhe.tex'
p15
atp16
Rp17
sVsynctex
p18
I01
s.