(dp0
Vengine
p1
c__builtin__
unicode
p2
(Vxelatex
p3
tp4
Rp5
sVsynctex
p6
I01
sVpackages
p7
c__builtin__
set
p8
((lp9
Vglossaries
p10
aVurl
p11
aVamsmath
p12
aVappendix
p13
aVamsthm
p14
aVgraphicx
p15
aVamssymb
p16
atp17
Rp18
sVfiles_with_guttermarks
p19
g8
((lp20
V/Users/Emi/thesisProject/pjTemps/thesis/./semsec.tex
p21
aS'thesis.tex'
p22
aV/Users/Emi/thesisProject/pjTemps/thesis/./background.tex
p23
aV/Users/Emi/thesisProject/pjTemps/thesis/./pkc.tex
p24
aV/Users/Emi/thesisProject/pjTemps/thesis/./glossary.tex
p25
atp26
Rp27
s.