(dp0
Vengine
p1
S'pdflatex'
p2
sVpackages
p3
c__builtin__
set
p4
((lp5
Vglossaries
p6
aVurl
p7
aVamsmath
p8
aVappendix
p9
aVamsthm
p10
aVgraphicx
p11
aVamssymb
p12
atp13
Rp14
sVfiles_with_guttermarks
p15
g4
((lp16
V/Users/Emi/thesisProject/pjTemps/thesis/./semsec.tex
p17
aV/Users/Emi/thesisProject/pjTemps/thesis/./background.tex
p18
aV/Users/Em/thesisGit/pjTemps/thesis/./semsec.tex
p19
aV/Users/Em/thesisGit/pjTemps/thesis/./background.tex
p20
aV/Users/Emi/thesisProject/pjTemps/thesis/./glossary.tex
p21
aV/Users/Em/thesisGit/pjTemps/thesis/./pkc.tex
p22
aV/Users/Emi/thesisProject/pjTemps/thesis/./pkc.tex
p23
aS'thesis.tex'
p24
atp25
Rp26
sVsynctex
p27
I01
s.