(dp0
Vengine
p1
S'pdflatex'
p2
sVpackages
p3
c__builtin__
set
p4
((lp5
Vamsmath
p6
aVamsthm
p7
aVtodonotes
p8
aVamssymb
p9
atp10
Rp11
sVfiles_with_guttermarks
p12
g4
((lp13
S'untitled.tex'
p14
aV/Users/Em/thesisGit/pjTemps/thesis/./untitled.tex
p15
atp16
Rp17
sVsynctex
p18
I01
s.